; ModuleID = 'source-C-CXX/22/1069.c'
source_filename = "source-C-CXX/22/1069.c"
target datalayout = "e-m:e-p270:32:32-p271:32:32-p272:64:64-i64:64-f80:128-n8:16:32:64-S128"
target triple = "x86_64-pc-linux-gnu"

@.str = private unnamed_addr constant [4 x i8] c"%s \00", align 1
@.str.1 = private unnamed_addr constant [3 x i8] c"%s\00", align 1

; Function Attrs: nofree nounwind sspstrong uwtable
define dso_local void @turn(i8* nocapture readonly %0) local_unnamed_addr #0 {
  %2 = alloca [100 x [100 x i8]], align 16
  %3 = getelementptr inbounds [100 x [100 x i8]], [100 x [100 x i8]]* %2, i64 0, i64 0, i64 0
  call void @llvm.lifetime.start.p0i8(i64 10000, i8* nonnull %3) #5
  br label %4

4:                                                ; preds = %20, %1
  %5 = phi i64 [ %23, %20 ], [ 0, %1 ]
  %6 = phi i32 [ %21, %20 ], [ 0, %1 ]
  %7 = phi i32 [ %22, %20 ], [ 0, %1 ]
  %8 = getelementptr inbounds i8, i8* %0, i64 %5
  %9 = load i8, i8* %8, align 1, !tbaa !5
  switch i8 %9, label %10 [
    i8 0, label %24
    i8 32, label %15
  ]

10:                                               ; preds = %4
  %11 = sext i32 %6 to i64
  %12 = sext i32 %7 to i64
  %13 = getelementptr inbounds [100 x [100 x i8]], [100 x [100 x i8]]* %2, i64 0, i64 %11, i64 %12
  store i8 %9, i8* %13, align 1, !tbaa !5
  %14 = add nsw i32 %7, 1
  br label %20

15:                                               ; preds = %4
  %16 = sext i32 %6 to i64
  %17 = sext i32 %7 to i64
  %18 = getelementptr inbounds [100 x [100 x i8]], [100 x [100 x i8]]* %2, i64 0, i64 %16, i64 %17
  store i8 0, i8* %18, align 1, !tbaa !5
  %19 = add nsw i32 %6, 1
  br label %20

20:                                               ; preds = %10, %15
  %21 = phi i32 [ %19, %15 ], [ %6, %10 ]
  %22 = phi i32 [ 0, %15 ], [ %14, %10 ]
  %23 = add nuw i64 %5, 1
  br label %4, !llvm.loop !8

24:                                               ; preds = %4
  %25 = sext i32 %6 to i64
  %26 = sext i32 %7 to i64
  %27 = getelementptr inbounds [100 x [100 x i8]], [100 x [100 x i8]]* %2, i64 0, i64 %25, i64 %26
  store i8 0, i8* %27, align 1, !tbaa !5
  %28 = icmp sgt i32 %6, 0
  br i1 %28, label %29, label %37

29:                                               ; preds = %24
  %30 = zext i32 %6 to i64
  br label %31

31:                                               ; preds = %29, %31
  %32 = phi i64 [ %30, %29 ], [ %36, %31 ]
  %33 = getelementptr inbounds [100 x [100 x i8]], [100 x [100 x i8]]* %2, i64 0, i64 %32, i64 0
  %34 = call i32 (i8*, ...) @printf(i8* nonnull dereferenceable(1) getelementptr inbounds ([4 x i8], [4 x i8]* @.str, i64 0, i64 0), i8* nonnull %33)
  %35 = icmp sgt i64 %32, 1
  %36 = add nsw i64 %32, -1
  br i1 %35, label %31, label %37, !llvm.loop !10

37:                                               ; preds = %31, %24
  %38 = phi i32 [ %6, %24 ], [ 0, %31 ]
  %39 = sext i32 %38 to i64
  %40 = getelementptr inbounds [100 x [100 x i8]], [100 x [100 x i8]]* %2, i64 0, i64 %39, i64 0
  %41 = call i32 (i8*, ...) @printf(i8* nonnull dereferenceable(1) getelementptr inbounds ([3 x i8], [3 x i8]* @.str.1, i64 0, i64 0), i8* nonnull %40)
  call void @llvm.lifetime.end.p0i8(i64 10000, i8* nonnull %3) #5
  ret void
}

; Function Attrs: argmemonly mustprogress nofree nosync nounwind willreturn
declare void @llvm.lifetime.start.p0i8(i64 immarg, i8* nocapture) #1

; Function Attrs: nofree nounwind
declare noundef i32 @printf(i8* nocapture noundef readonly, ...) local_unnamed_addr #2

; Function Attrs: argmemonly mustprogress nofree nosync nounwind willreturn
declare void @llvm.lifetime.end.p0i8(i64 immarg, i8* nocapture) #1

; Function Attrs: nounwind sspstrong uwtable
define dso_local void @main() local_unnamed_addr #3 {
  %1 = alloca [100 x [100 x i8]], align 16
  %2 = alloca [100 x i8], align 16
  %3 = getelementptr inbounds [100 x i8], [100 x i8]* %2, i64 0, i64 0
  call void @llvm.lifetime.start.p0i8(i64 100, i8* nonnull %3) #5
  %4 = call i32 (i8*, ...) bitcast (i32 (...)* @gets to i32 (i8*, ...)*)(i8* nonnull %3) #5
  %5 = getelementptr inbounds [100 x [100 x i8]], [100 x [100 x i8]]* %1, i64 0, i64 0, i64 0
  call void @llvm.lifetime.start.p0i8(i64 10000, i8* nonnull %5) #5
  br label %6

6:                                                ; preds = %22, %0
  %7 = phi i64 [ %25, %22 ], [ 0, %0 ]
  %8 = phi i32 [ %23, %22 ], [ 0, %0 ]
  %9 = phi i32 [ %24, %22 ], [ 0, %0 ]
  %10 = getelementptr inbounds [100 x i8], [100 x i8]* %2, i64 0, i64 %7
  %11 = load i8, i8* %10, align 1, !tbaa !5
  switch i8 %11, label %12 [
    i8 0, label %26
    i8 32, label %17
  ]

12:                                               ; preds = %6
  %13 = sext i32 %8 to i64
  %14 = sext i32 %9 to i64
  %15 = getelementptr inbounds [100 x [100 x i8]], [100 x [100 x i8]]* %1, i64 0, i64 %13, i64 %14
  store i8 %11, i8* %15, align 1, !tbaa !5
  %16 = add nsw i32 %9, 1
  br label %22

17:                                               ; preds = %6
  %18 = sext i32 %8 to i64
  %19 = sext i32 %9 to i64
  %20 = getelementptr inbounds [100 x [100 x i8]], [100 x [100 x i8]]* %1, i64 0, i64 %18, i64 %19
  store i8 0, i8* %20, align 1, !tbaa !5
  %21 = add nsw i32 %8, 1
  br label %22

22:                                               ; preds = %17, %12
  %23 = phi i32 [ %21, %17 ], [ %8, %12 ]
  %24 = phi i32 [ 0, %17 ], [ %16, %12 ]
  %25 = add nuw i64 %7, 1
  br label %6, !llvm.loop !8

26:                                               ; preds = %6
  %27 = sext i32 %8 to i64
  %28 = sext i32 %9 to i64
  %29 = getelementptr inbounds [100 x [100 x i8]], [100 x [100 x i8]]* %1, i64 0, i64 %27, i64 %28
  store i8 0, i8* %29, align 1, !tbaa !5
  %30 = icmp sgt i32 %8, 0
  br i1 %30, label %31, label %39

31:                                               ; preds = %26
  %32 = zext i32 %8 to i64
  br label %33

33:                                               ; preds = %33, %31
  %34 = phi i64 [ %32, %31 ], [ %38, %33 ]
  %35 = getelementptr inbounds [100 x [100 x i8]], [100 x [100 x i8]]* %1, i64 0, i64 %34, i64 0
  %36 = call i32 (i8*, ...) @printf(i8* nonnull dereferenceable(1) getelementptr inbounds ([4 x i8], [4 x i8]* @.str, i64 0, i64 0), i8* nonnull %35) #5
  %37 = icmp sgt i64 %34, 1
  %38 = add nsw i64 %34, -1
  br i1 %37, label %33, label %39, !llvm.loop !10

39:                                               ; preds = %33, %26
  %40 = phi i32 [ %8, %26 ], [ 0, %33 ]
  %41 = sext i32 %40 to i64
  %42 = getelementptr inbounds [100 x [100 x i8]], [100 x [100 x i8]]* %1, i64 0, i64 %41, i64 0
  %43 = call i32 (i8*, ...) @printf(i8* nonnull dereferenceable(1) getelementptr inbounds ([3 x i8], [3 x i8]* @.str.1, i64 0, i64 0), i8* nonnull %42) #5
  call void @llvm.lifetime.end.p0i8(i64 10000, i8* nonnull %5) #5
  call void @llvm.lifetime.end.p0i8(i64 100, i8* nonnull %3) #5
  ret void
}

declare i32 @gets(...) local_unnamed_addr #4


!llvm.module.flags = !{!0, !1, !2, !3}
!llvm.ident = !{!4}

!0 = !{i32 1, !"wchar_size", i32 4}
!1 = !{i32 7, !"PIC Level", i32 2}
!2 = !{i32 7, !"PIE Level", i32 2}
!3 = !{i32 7, !"uwtable", i32 1}
!4 = !{!"clang version 13.0.0"}
!5 = !{!6, !6, i64 0}
!6 = !{!"omnipotent char", !7, i64 0}
!7 = !{!"Simple C/C++ TBAA"}
!8 = distinct !{!8, !9}
!9 = !{!"llvm.loop.mustprogress"}
!10 = distinct !{!10, !9}
